; Function Attrs: mustprogress nofree norecurse nosync nounwind willreturn memory(read, inaccessiblemem: none) uwtable
define internal range(i32 -1, 2) i32 @sort_order_cmp(ptr noundef readonly captures(none) %0, ptr noundef readonly captures(none) %1) #6 {
  %3 = load ptr, ptr %0, align 8
  %4 = load ptr, ptr %1, align 8
  %5 = getelementptr i8, ptr %3, i64 16
  %.val = load ptr, ptr %5, align 8
  %6 = getelementptr inbounds nuw i8, ptr %.val, i64 22
  %7 = load i8, ptr %6, align 2
  %8 = zext i8 %7 to i64
  %9 = getelementptr inbounds nuw i8, ptr %.val, i64 %8
  %10 = getelementptr i8, ptr %4, i64 16
  %.val10 = load ptr, ptr %10, align 8
  %11 = getelementptr inbounds nuw i8, ptr %.val10, i64 22
  %12 = load i8, ptr %11, align 2
  %13 = zext i8 %12 to i64
  %14 = getelementptr inbounds nuw i8, ptr %.val10, i64 %13
  %15 = getelementptr inbounds nuw i8, ptr %9, i64 8
  %16 = load float, ptr %15, align 4
  %17 = getelementptr inbounds nuw i8, ptr %14, i64 8
  %18 = load float, ptr %17, align 4
  %19 = fcmp olt float %16, %18
  %20 = fcmp ogt float %16, %18
  %. = zext i1 %20 to i32
  %.0 = select i1 %19, i32 -1, i32 %.
  ret i32 %.0
}